; Function Attrs: null_pointer_is_valid sspstrong uwtable
define hidden void @cf_unselect_packet(ptr noundef captures(none) initializes((352, 360)) %0) local_unnamed_addr #1 {
  %2 = getelementptr inbounds nuw i8, ptr %0, i64 360
  %3 = load ptr, ptr %2, align 8
  %4 = getelementptr inbounds nuw i8, ptr %0, i64 352
  %.not = icmp eq ptr %3, null
  tail call void @llvm.memset.p0.i64(ptr noundef nonnull align 8 dereferenceable(16) %4, i8 0, i64 16, i1 false)
  br i1 %.not, label %6, label %5

5:                                                ; preds = %1
  tail call void @epan_dissect_free(ptr noundef nonnull %3)
  br label %6

6:                                                ; preds = %5, %1
  ret void
}